target datalayout = "e-m:e-p270:32:32-p271:32:32-p272:64:64-i64:64-i128:128-f80:128-n8:16:32:64-S128"
target triple = "x86_64-unknown-linux-gnu"

%"class.node::tracing::NodeTraceWriter" = type <{ %"class.node::tracing::AsyncTraceWriter", ptr, %struct.uv_async_s, %struct.uv_async_s, %"class.node::MutexBase", %"class.node::MutexBase", %"class.node::ConditionVariableBase", %"class.node::ConditionVariableBase", i32, [4 x i8], %struct.uv_fs_s, %"class.std::queue", i32, i32, i32, i32, %"class.std::__cxx11::basic_string", %"class.std::__cxx11::basic_ostringstream", %"class.std::unique_ptr", i8, [7 x i8] }>
%"class.node::tracing::AsyncTraceWriter" = type { ptr }
%struct.uv_async_s = type { ptr, ptr, i32, ptr, %struct.uv__queue, %union.anon, ptr, i32, ptr, %struct.uv__queue, i32 }
%union.anon = type { [4 x ptr] }
%struct.uv__queue = type { ptr, ptr }
%"class.node::MutexBase" = type { %union.pthread_mutex_t }
%union.pthread_mutex_t = type { %struct.__pthread_mutex_s }
%struct.__pthread_mutex_s = type { i32, i32, i32, i32, i32, i16, i16, %struct.__pthread_internal_list }
%struct.__pthread_internal_list = type { ptr, ptr }
%"class.node::ConditionVariableBase" = type { %union.pthread_cond_t }
%union.pthread_cond_t = type { %struct.__pthread_cond_s }
%struct.__pthread_cond_s = type { %union.__atomic_wide_counter, %union.__atomic_wide_counter, [2 x i32], [2 x i32], i32, i32, [2 x i32] }
%union.__atomic_wide_counter = type { i64 }
%struct.uv_fs_s = type { ptr, i32, [6 x ptr], i32, ptr, ptr, i64, ptr, ptr, %struct.uv_stat_t, ptr, i32, i32, i32, i32, ptr, i64, i32, i32, double, double, %struct.uv__work, [4 x %struct.uv_buf_t] }
%struct.uv_stat_t = type { i64, i64, i64, i64, i64, i64, i64, i64, i64, i64, i64, i64, %struct.uv_timespec_t, %struct.uv_timespec_t, %struct.uv_timespec_t, %struct.uv_timespec_t }
%struct.uv_timespec_t = type { i64, i64 }
%struct.uv__work = type { ptr, ptr, ptr, %struct.uv__queue }
%struct.uv_buf_t = type { ptr, i64 }
%"class.std::queue" = type { %"class.std::deque" }
%"class.std::deque" = type { %"class.std::_Deque_base" }
%"class.std::_Deque_base" = type { %"struct.std::_Deque_base<node::tracing::NodeTraceWriter::WriteRequest, std::allocator<node::tracing::NodeTraceWriter::WriteRequest>>::_Deque_impl" }
%"struct.std::_Deque_base<node::tracing::NodeTraceWriter::WriteRequest, std::allocator<node::tracing::NodeTraceWriter::WriteRequest>>::_Deque_impl" = type { %"struct.std::_Deque_base<node::tracing::NodeTraceWriter::WriteRequest, std::allocator<node::tracing::NodeTraceWriter::WriteRequest>>::_Deque_impl_data" }
%"struct.std::_Deque_base<node::tracing::NodeTraceWriter::WriteRequest, std::allocator<node::tracing::NodeTraceWriter::WriteRequest>>::_Deque_impl_data" = type { ptr, i64, %"struct.std::_Deque_iterator", %"struct.std::_Deque_iterator" }
%"struct.std::_Deque_iterator" = type { ptr, ptr, ptr, ptr }
%"class.std::__cxx11::basic_string" = type { %"struct.std::__cxx11::basic_string<char>::_Alloc_hider", i64, %union.anon.3 }
%"struct.std::__cxx11::basic_string<char>::_Alloc_hider" = type { ptr }
%union.anon.3 = type { i64, [8 x i8] }
%"class.std::__cxx11::basic_ostringstream" = type { %"class.std::basic_ostream.base", %"class.std::__cxx11::basic_stringbuf", %"class.std::basic_ios" }
%"class.std::basic_ostream.base" = type { ptr }
%"class.std::__cxx11::basic_stringbuf" = type { %"class.std::basic_streambuf", i32, %"class.std::__cxx11::basic_string" }
%"class.std::basic_streambuf" = type { ptr, ptr, ptr, ptr, ptr, ptr, ptr, %"class.std::locale" }
%"class.std::locale" = type { ptr }
%"class.std::basic_ios" = type { %"class.std::ios_base", ptr, i8, i8, ptr, ptr, ptr, ptr }
%"class.std::ios_base" = type { ptr, i64, i64, i32, i32, i32, ptr, %"struct.std::ios_base::_Words", [8 x %"struct.std::ios_base::_Words"], i32, ptr, %"class.std::locale" }
%"struct.std::ios_base::_Words" = type { ptr, i64 }
%"class.std::unique_ptr" = type { %"struct.std::__uniq_ptr_data" }
%"struct.std::__uniq_ptr_data" = type { %"class.std::__uniq_ptr_impl" }
%"class.std::__uniq_ptr_impl" = type { %"class.std::tuple" }
%"class.std::tuple" = type { %"struct.std::_Tuple_impl" }
%"struct.std::_Tuple_impl" = type { %"struct.std::_Head_base.5" }
%"struct.std::_Head_base.5" = type { ptr }
%"class.node::ContainerOfHelper" = type { ptr }
%class.anon.8 = type { i8 }
%class.anon.14 = type { i8 }

; Function Attrs: mustprogress nounwind uwtable
define linkonce_odr dso_local noundef i64 @_ZN4node8OffsetOfI10uv_async_sNS_7tracing15NodeTraceWriterEEEmMT0_T_(i64 %field) #0 comdat {
entry:
  %field.addr = alloca i64, align 8
  store i64 %field, ptr %field.addr, align 8
  %0 = load i64, ptr %field.addr, align 8
  %memptr.offset = getelementptr inbounds i8, ptr null, i64 %0
  %1 = ptrtoint ptr %memptr.offset to i64
  ret i64 %1
}

; Function Attrs: mustprogress nounwind uwtable
define linkonce_odr dso_local void @_ZN4node17ContainerOfHelperI10uv_async_sNS_7tracing15NodeTraceWriterEEC2EMS3_S1_PS1_(ptr noundef nonnull align 8 dereferenceable(8) %this, i64 %field, ptr noundef %pointer) unnamed_addr #0 comdat align 2 {
entry:
  %this.addr = alloca ptr, align 8
  %field.addr = alloca i64, align 8
  %pointer.addr = alloca ptr, align 8
  store ptr %this, ptr %this.addr, align 8
  store i64 %field, ptr %field.addr, align 8
  store ptr %pointer, ptr %pointer.addr, align 8
  %this1 = load ptr, ptr %this.addr, align 8
  %pointer_ = getelementptr inbounds %"class.node::ContainerOfHelper", ptr %this1, i32 0, i32 0
  %0 = load ptr, ptr %pointer.addr, align 8
  %1 = ptrtoint ptr %0 to i64
  %2 = load i64, ptr %field.addr, align 8
  %call = call noundef i64 @_ZN4node8OffsetOfI10uv_async_sNS_7tracing15NodeTraceWriterEEEmMT0_T_(i64 %2)
  %sub = sub i64 %1, %call
  %3 = inttoptr i64 %sub to ptr
  store ptr %3, ptr %pointer_, align 8
  ret void
}

; Function Attrs: mustprogress nounwind uwtable
define internal noundef ptr @"_ZZZN4node7tracing15NodeTraceWriter12ExitSignalCbEP10uv_async_sENK3$_0clEP11uv_handle_sENKUlS6_E_cvPFvS6_EEv"(ptr noundef nonnull align 1 dereferenceable(1) %this) #0 align 2 {
entry:
  %this.addr = alloca ptr, align 8
  store ptr %this, ptr %this.addr, align 8
  ret ptr @"_ZZZN4node7tracing15NodeTraceWriter12ExitSignalCbEP10uv_async_sENK3$_0clEP11uv_handle_sENUlS6_E_8__invokeES6_"
}

; Function Attrs: mustprogress nounwind uwtable
define linkonce_odr dso_local noundef ptr @_ZNK4node17ContainerOfHelperI10uv_async_sNS_7tracing15NodeTraceWriterEEcvPT_IS3_EEv(ptr noundef nonnull align 8 dereferenceable(8) %this) #0 comdat align 2 {
entry:
  %this.addr = alloca ptr, align 8
  store ptr %this, ptr %this.addr, align 8
  %this1 = load ptr, ptr %this.addr, align 8
  %pointer_ = getelementptr inbounds %"class.node::ContainerOfHelper", ptr %this1, i32 0, i32 0
  %0 = load ptr, ptr %pointer_, align 8
  ret ptr %0
}

; Function Attrs: mustprogress nounwind uwtable
define linkonce_odr dso_local ptr @_ZN4node11ContainerOfI10uv_async_sNS_7tracing15NodeTraceWriterEEENS_17ContainerOfHelperIT_T0_EEMS6_S5_PS5_(i64 %field, ptr noundef %pointer) #0 comdat {
entry:
  %retval = alloca %"class.node::ContainerOfHelper", align 8
  %field.addr = alloca i64, align 8
  %pointer.addr = alloca ptr, align 8
  store i64 %field, ptr %field.addr, align 8
  store ptr %pointer, ptr %pointer.addr, align 8
  %0 = load i64, ptr %field.addr, align 8
  %1 = load ptr, ptr %pointer.addr, align 8
  call void @_ZN4node17ContainerOfHelperI10uv_async_sNS_7tracing15NodeTraceWriterEEC2EMS3_S1_PS1_(ptr noundef nonnull align 8 dereferenceable(8) %retval, i64 %0, ptr noundef %1)
  %coerce.dive = getelementptr inbounds %"class.node::ContainerOfHelper", ptr %retval, i32 0, i32 0
  %2 = load ptr, ptr %coerce.dive, align 8
  ret ptr %2
}

; Function Attrs: mustprogress nounwind uwtable
define internal void @"_ZZN4node7tracing15NodeTraceWriter12ExitSignalCbEP10uv_async_sENK3$_0clEP11uv_handle_s"(ptr noundef nonnull align 1 dereferenceable(1) %this, ptr noundef %signal) #0 align 2 {
entry:
  %this.addr = alloca ptr, align 8
  %signal.addr = alloca ptr, align 8
  %trace_writer = alloca ptr, align 8
  %ref.tmp = alloca %"class.node::ContainerOfHelper", align 8
  %ref.tmp3 = alloca %class.anon.14, align 1
  store ptr %this, ptr %this.addr, align 8
  store ptr %signal, ptr %signal.addr, align 8
  %0 = load ptr, ptr %signal.addr, align 8
  %call = call ptr @_ZN4node11ContainerOfI10uv_async_sNS_7tracing15NodeTraceWriterEEENS_17ContainerOfHelperIT_T0_EEMS6_S5_PS5_(i64 16, ptr noundef %0)
  %coerce.dive = getelementptr inbounds %"class.node::ContainerOfHelper", ptr %ref.tmp, i32 0, i32 0
  store ptr %call, ptr %coerce.dive, align 8
  %call2 = call noundef ptr @_ZNK4node17ContainerOfHelperI10uv_async_sNS_7tracing15NodeTraceWriterEEcvPT_IS3_EEv(ptr noundef nonnull align 8 dereferenceable(8) %ref.tmp)
  store ptr %call2, ptr %trace_writer, align 8
  %1 = load ptr, ptr %trace_writer, align 8
  %exit_signal_ = getelementptr inbounds %"class.node::tracing::NodeTraceWriter", ptr %1, i32 0, i32 3
  %call4 = call noundef ptr @"_ZZZN4node7tracing15NodeTraceWriter12ExitSignalCbEP10uv_async_sENK3$_0clEP11uv_handle_sENKUlS6_E_cvPFvS6_EEv"(ptr noundef nonnull align 1 dereferenceable(1) %ref.tmp3) #10
  call void @uv_close(ptr noundef %exit_signal_, ptr noundef %call4)
  ret void
}

; Function Attrs: mustprogress nounwind uwtable
define internal void @"_ZZN4node7tracing15NodeTraceWriter12ExitSignalCbEP10uv_async_sEN3$_08__invokeEP11uv_handle_s"(ptr noundef %signal) #0 align 2 {
entry:
  %signal.addr = alloca ptr, align 8
  %unused.capture = alloca %class.anon.8, align 1
  store ptr %signal, ptr %signal.addr, align 8
  %0 = load ptr, ptr %signal.addr, align 8
  call void @"_ZZN4node7tracing15NodeTraceWriter12ExitSignalCbEP10uv_async_sENK3$_0clEP11uv_handle_s"(ptr noundef nonnull align 1 dereferenceable(1) %unused.capture, ptr noundef %0)
  ret void
}