; Function Attrs: mustprogress nounwind uwtable
define internal void @"_ZZN4node7tracing15NodeTraceWriter12ExitSignalCbEP10uv_async_sEN3$_08__invokeEP11uv_handle_s"(ptr noundef %signal) #0 align 2 {
entry:
  %0 = ptrtoint ptr %signal to i64
  %sub.i.i.i = add i64 %0, -16
  %1 = inttoptr i64 %sub.i.i.i to ptr
  %exit_signal_.i = getelementptr inbounds i8, ptr %1, i64 144
  tail call void @uv_close(ptr noundef nonnull %exit_signal_.i, ptr noundef nonnull @"_ZZZN4node7tracing15NodeTraceWriter12ExitSignalCbEP10uv_async_sENK3$_0clEP11uv_handle_sENUlS6_E_8__invokeES6_") #12
  ret void
}